; Function Attrs: mustprogress uwtable
define noundef zeroext i1 @_ZN32pxrInternal_v0_24__pxrReserved__22Sdf_FileFormatRegistry21FormatSupportsReadingERKNSt7__cxx1112basic_stringIcSt11char_traitsIcESaIcEEES8_(ptr noundef nonnull align 8 dereferenceable(216) %0, ptr noundef nonnull align 8 dereferenceable(32) %1, ptr noundef nonnull align 8 dereferenceable(32) %2) local_unnamed_addr #0 align 2 personality ptr @__gxx_personality_v0 {
  %4 = alloca %"class.std::shared_ptr", align 8
  call void @llvm.lifetime.start.p0(i64 16, ptr nonnull %4)
  call void @_ZN32pxrInternal_v0_24__pxrReserved__22Sdf_FileFormatRegistry14_GetFormatInfoERKNSt7__cxx1112basic_stringIcSt11char_traitsIcESaIcEEES8_(ptr dead_on_unwind nonnull writable sret(%"class.std::shared_ptr") align 8 %4, ptr noundef nonnull align 8 dereferenceable(216) %0, ptr noundef nonnull align 8 dereferenceable(32) %1, ptr noundef nonnull align 8 dereferenceable(32) %2)
  %5 = load ptr, ptr %4, align 8
  %.not.i = icmp eq ptr %5, null
  br i1 %.not.i, label %11, label %6

6:                                                ; preds = %3
  %7 = getelementptr inbounds nuw i8, ptr %5, i64 24
  %8 = load i32, ptr %7, align 8
  %9 = and i32 %8, 1
  %10 = icmp ne i32 %9, 0
  br label %11

11:                                               ; preds = %6, %3
  %.0.i = phi i1 [ %10, %6 ], [ false, %3 ]
  %12 = getelementptr inbounds nuw i8, ptr %4, i64 8
  %13 = load ptr, ptr %12, align 8
  %.not.i.i.i.i = icmp eq ptr %13, null
  br i1 %.not.i.i.i.i, label %_ZN32pxrInternal_v0_24__pxrReserved__22Sdf_FileFormatRegistry25_FormatSupportsCapabilityERKNSt7__cxx1112basic_stringIcSt11char_traitsIcESaIcEEES8_NS0_5_Info12CapabilitiesE.exit, label %14

14:                                               ; preds = %11
  %15 = getelementptr inbounds nuw i8, ptr %13, i64 8
  %16 = load atomic i64, ptr %15 acquire, align 8
  %17 = icmp eq i64 %16, 4294967297
  %18 = trunc i64 %16 to i32
  br i1 %17, label %19, label %24

19:                                               ; preds = %14
  store i32 0, ptr %15, align 8
  %20 = getelementptr inbounds nuw i8, ptr %13, i64 12
  store i32 0, ptr %20, align 4
  %21 = load ptr, ptr %13, align 8
  %22 = getelementptr inbounds i8, ptr %21, i64 16
  %23 = load ptr, ptr %22, align 8
  call void %23(ptr noundef nonnull align 8 dereferenceable(16) %13) #19
  br label %_ZNSt16_Sp_counted_baseILN9__gnu_cxx12_Lock_policyE2EE24_M_release_last_use_coldEv.exit.sink.split.i.i.i.i.i

24:                                               ; preds = %14
  %25 = load i8, ptr @__libc_single_threaded, align 1
  %.not.i.i.i.i.i = icmp eq i8 %25, 0
  br i1 %.not.i.i.i.i.i, label %28, label %26

26:                                               ; preds = %24
  %27 = add nsw i32 %18, -1
  store i32 %27, ptr %15, align 4
  br label %30

28:                                               ; preds = %24
  %29 = atomicrmw volatile add ptr %15, i32 -1 acq_rel, align 4
  br label %30

30:                                               ; preds = %28, %26
  %.0.i.i.i.i.i = phi i32 [ %18, %26 ], [ %29, %28 ]
  %31 = icmp eq i32 %.0.i.i.i.i.i, 1
  br i1 %31, label %32, label %_ZN32pxrInternal_v0_24__pxrReserved__22Sdf_FileFormatRegistry25_FormatSupportsCapabilityERKNSt7__cxx1112basic_stringIcSt11char_traitsIcESaIcEEES8_NS0_5_Info12CapabilitiesE.exit

32:                                               ; preds = %30
  %33 = load ptr, ptr %13, align 8
  %34 = getelementptr inbounds i8, ptr %33, i64 16
  %35 = load ptr, ptr %34, align 8
  call void %35(ptr noundef nonnull align 8 dereferenceable(16) %13) #19
  %36 = getelementptr inbounds nuw i8, ptr %13, i64 12
  %37 = load i8, ptr @__libc_single_threaded, align 1
  %.not.i.i.i.i.i.i.i = icmp eq i8 %37, 0
  br i1 %.not.i.i.i.i.i.i.i, label %41, label %38

38:                                               ; preds = %32
  %39 = load i32, ptr %36, align 4
  %40 = add nsw i32 %39, -1
  store i32 %40, ptr %36, align 4
  br label %43

41:                                               ; preds = %32
  %42 = atomicrmw volatile add ptr %36, i32 -1 acq_rel, align 4
  br label %43

43:                                               ; preds = %41, %38
  %.0.i.i.i.i.i.i.i = phi i32 [ %39, %38 ], [ %42, %41 ]
  %44 = icmp eq i32 %.0.i.i.i.i.i.i.i, 1
  br i1 %44, label %_ZNSt16_Sp_counted_baseILN9__gnu_cxx12_Lock_policyE2EE24_M_release_last_use_coldEv.exit.sink.split.i.i.i.i.i, label %_ZN32pxrInternal_v0_24__pxrReserved__22Sdf_FileFormatRegistry25_FormatSupportsCapabilityERKNSt7__cxx1112basic_stringIcSt11char_traitsIcESaIcEEES8_NS0_5_Info12CapabilitiesE.exit

_ZNSt16_Sp_counted_baseILN9__gnu_cxx12_Lock_policyE2EE24_M_release_last_use_coldEv.exit.sink.split.i.i.i.i.i: ; preds = %43, %19
  %45 = load ptr, ptr %13, align 8
  %46 = getelementptr inbounds i8, ptr %45, i64 24
  %47 = load ptr, ptr %46, align 8
  call void %47(ptr noundef nonnull align 8 dereferenceable(16) %13) #19
  br label %_ZN32pxrInternal_v0_24__pxrReserved__22Sdf_FileFormatRegistry25_FormatSupportsCapabilityERKNSt7__cxx1112basic_stringIcSt11char_traitsIcESaIcEEES8_NS0_5_Info12CapabilitiesE.exit

_ZN32pxrInternal_v0_24__pxrReserved__22Sdf_FileFormatRegistry25_FormatSupportsCapabilityERKNSt7__cxx1112basic_stringIcSt11char_traitsIcESaIcEEES8_NS0_5_Info12CapabilitiesE.exit: ; preds = %11, %30, %43, %_ZNSt16_Sp_counted_baseILN9__gnu_cxx12_Lock_policyE2EE24_M_release_last_use_coldEv.exit.sink.split.i.i.i.i.i
  call void @llvm.lifetime.end.p0(i64 16, ptr nonnull %4)
  ret i1 %.0.i
}